; Function Attrs: mustprogress uwtable
define void @rocksdb_writebatch_singledelete(ptr noundef %0, ptr noundef %1, i64 noundef %2) local_unnamed_addr #0 personality ptr @__gxx_personality_v0 {
  %4 = alloca %"class.rocksdb::Status", align 8
  %5 = alloca %"class.rocksdb::Slice", align 8
  call void @llvm.lifetime.start.p0(i64 16, ptr nonnull %5) #43
  store ptr %1, ptr %5, align 8, !tbaa !251
  %6 = getelementptr inbounds nuw i8, ptr %5, i64 8
  store i64 %2, ptr %6, align 8, !tbaa !253
  %7 = load ptr, ptr %0, align 8, !tbaa !23, !noalias !384
  %8 = getelementptr inbounds nuw i8, ptr %7, i64 160
  %9 = load ptr, ptr %8, align 8, !noalias !384
  call void %9(ptr dead_on_unwind nonnull writable sret(%"class.rocksdb::Status") align 8 %4, ptr noundef nonnull align 8 dereferenceable(160) %0, ptr noundef null, ptr noundef nonnull align 8 dereferenceable(16) %5)
  %10 = getelementptr inbounds nuw i8, ptr %4, i64 8
  %11 = load ptr, ptr %10, align 8, !tbaa !25
  %.not.i.i = icmp eq ptr %11, null
  br i1 %.not.i.i, label %_ZN7rocksdb6StatusD2Ev.exit, label %_ZNKSt14default_deleteIA_KcEclIS0_EENSt9enable_ifIXsr14is_convertibleIPA_T_PS1_EE5valueEvE4typeEPS5_.exit.i.i

_ZNKSt14default_deleteIA_KcEclIS0_EENSt9enable_ifIXsr14is_convertibleIPA_T_PS1_EE5valueEvE4typeEPS5_.exit.i.i: ; preds = %3
  call void @_ZdaPv(ptr noundef nonnull %11) #45
  br label %_ZN7rocksdb6StatusD2Ev.exit

_ZN7rocksdb6StatusD2Ev.exit:                      ; preds = %3, %_ZNKSt14default_deleteIA_KcEclIS0_EENSt9enable_ifIXsr14is_convertibleIPA_T_PS1_EE5valueEvE4typeEPS5_.exit.i.i
  call void @llvm.lifetime.end.p0(i64 16, ptr nonnull %5) #43
  ret void
}